; Function Attrs: mustprogress uwtable
define dso_local void @_ZN27cmGlobalNinjaMultiGenerator20GetNinjaImplFilenameERKNSt7__cxx1112basic_stringIcSt11char_traitsIcESaIcEEE(ptr dead_on_unwind noalias writable sret(%"class.std::__cxx11::basic_string") align 8 %0, ptr noundef nonnull align 8 dereferenceable(32) %1) local_unnamed_addr #3 align 2 personality ptr @__gxx_personality_v0 {
  %3 = alloca [3 x %"struct.std::pair.1104"], align 8
  call void @llvm.lifetime.start.p0(i64 72, ptr nonnull %3)
  store i64 16, ptr %3, align 8, !alias.scope !880, !noalias !883
  %.sroa.2.0..sroa_idx.i.i = getelementptr inbounds i8, ptr %3, i64 8
  store ptr @.str.259, ptr %.sroa.2.0..sroa_idx.i.i, align 8, !alias.scope !880, !noalias !883
  %4 = getelementptr inbounds i8, ptr %3, i64 16
  store ptr null, ptr %4, align 8, !alias.scope !880, !noalias !883
  %5 = getelementptr inbounds i8, ptr %3, i64 24
  %6 = tail call { i64, ptr } @_ZNKSt7__cxx1112basic_stringIcSt11char_traitsIcESaIcEEcvSt17basic_string_viewIcS2_EEv(ptr noundef nonnull align 8 dereferenceable(32) %1) #23, !noalias !883
  %7 = extractvalue { i64, ptr } %6, 0
  %8 = extractvalue { i64, ptr } %6, 1
  store i64 %7, ptr %5, align 8, !alias.scope !886, !noalias !883
  %.sroa.2.0..sroa_idx.i7.i = getelementptr inbounds i8, ptr %3, i64 32
  store ptr %8, ptr %.sroa.2.0..sroa_idx.i7.i, align 8, !alias.scope !886, !noalias !883
  %9 = getelementptr inbounds i8, ptr %3, i64 40
  store ptr null, ptr %9, align 8, !alias.scope !886, !noalias !883
  %10 = getelementptr inbounds i8, ptr %3, i64 48
  %11 = load ptr, ptr @_ZN27cmGlobalNinjaMultiGenerator20NINJA_FILE_EXTENSIONE, align 8, !noalias !883
  %12 = tail call noundef i64 @strlen(ptr noundef nonnull dereferenceable(1) %11) #23, !noalias !883
  store i64 %12, ptr %10, align 8, !alias.scope !889, !noalias !883
  %.sroa.2.0..sroa_idx.i16.i = getelementptr inbounds i8, ptr %3, i64 56
  store ptr %11, ptr %.sroa.2.0..sroa_idx.i16.i, align 8, !alias.scope !889, !noalias !883
  %13 = getelementptr inbounds i8, ptr %3, i64 64
  store ptr null, ptr %13, align 8, !alias.scope !889, !noalias !883
  call void @_Z10cmCatViewsSt16initializer_listISt4pairISt17basic_string_viewIcSt11char_traitsIcEEPNSt7__cxx1112basic_stringIcS3_SaIcEEEEE(ptr dead_on_unwind writable sret(%"class.std::__cxx11::basic_string") align 8 %0, ptr nonnull %3, i64 3)
  call void @llvm.lifetime.end.p0(i64 72, ptr nonnull %3)
  ret void
}